target datalayout = "e-m:e-p270:32:32-p271:32:32-p272:64:64-i64:64-i128:128-f80:128-n8:16:32:64-S128"
target triple = "x86_64-pc-linux-gnu"

%struct.Nm_Man_t_ = type { ptr, ptr, i32, i32, i32, i32, ptr }

; Function Attrs: nounwind uwtable
define void @Nm_ManFree(ptr noundef %0) #0 {
  %2 = alloca ptr, align 8
  store ptr %0, ptr %2, align 8, !tbaa !7
  %3 = load ptr, ptr %2, align 8, !tbaa !7
  %4 = getelementptr inbounds nuw %struct.Nm_Man_t_, ptr %3, i32 0, i32 6
  %5 = load ptr, ptr %4, align 8, !tbaa !18
  call void @Extra_MmFlexStop(ptr noundef %5)
  %6 = load ptr, ptr %2, align 8, !tbaa !7
  %7 = getelementptr inbounds nuw %struct.Nm_Man_t_, ptr %6, i32 0, i32 0
  %8 = load ptr, ptr %7, align 8, !tbaa !16
  %9 = icmp ne ptr %8, null
  br i1 %9, label %10, label %16

10:                                               ; preds = %1
  %11 = load ptr, ptr %2, align 8, !tbaa !7
  %12 = getelementptr inbounds nuw %struct.Nm_Man_t_, ptr %11, i32 0, i32 0
  %13 = load ptr, ptr %12, align 8, !tbaa !16
  call void @free(ptr noundef %13) #9
  %14 = load ptr, ptr %2, align 8, !tbaa !7
  %15 = getelementptr inbounds nuw %struct.Nm_Man_t_, ptr %14, i32 0, i32 0
  store ptr null, ptr %15, align 8, !tbaa !16
  br label %17

16:                                               ; preds = %1
  br label %17

17:                                               ; preds = %16, %10
  %18 = load ptr, ptr %2, align 8, !tbaa !7
  %19 = getelementptr inbounds nuw %struct.Nm_Man_t_, ptr %18, i32 0, i32 1
  %20 = load ptr, ptr %19, align 8, !tbaa !17
  %21 = icmp ne ptr %20, null
  br i1 %21, label %22, label %28

22:                                               ; preds = %17
  %23 = load ptr, ptr %2, align 8, !tbaa !7
  %24 = getelementptr inbounds nuw %struct.Nm_Man_t_, ptr %23, i32 0, i32 1
  %25 = load ptr, ptr %24, align 8, !tbaa !17
  call void @free(ptr noundef %25) #9
  %26 = load ptr, ptr %2, align 8, !tbaa !7
  %27 = getelementptr inbounds nuw %struct.Nm_Man_t_, ptr %26, i32 0, i32 1
  store ptr null, ptr %27, align 8, !tbaa !17
  br label %29

28:                                               ; preds = %17
  br label %29

29:                                               ; preds = %28, %22
  %30 = load ptr, ptr %2, align 8, !tbaa !7
  %31 = icmp ne ptr %30, null
  br i1 %31, label %32, label %34

32:                                               ; preds = %29
  %33 = load ptr, ptr %2, align 8, !tbaa !7
  call void @free(ptr noundef %33) #9
  store ptr null, ptr %2, align 8, !tbaa !7
  br label %35

34:                                               ; preds = %29
  br label %35

35:                                               ; preds = %34, %32
  ret void
}