; Function Attrs: nounwind uwtable
define void @Nm_ManFree(ptr noundef captures(none) %0) local_unnamed_addr #0 {
  %2 = getelementptr inbounds nuw i8, ptr %0, i64 32
  %3 = load ptr, ptr %2, align 8, !tbaa !18
  tail call void @Extra_MmFlexStop(ptr noundef %3) #10
  %4 = load ptr, ptr %0, align 8, !tbaa !16
  %.not = icmp eq ptr %4, null
  br i1 %.not, label %6, label %5

5:                                                ; preds = %1
  tail call void @free(ptr noundef nonnull %4) #10
  store ptr null, ptr %0, align 8, !tbaa !16
  br label %6

6:                                                ; preds = %1, %5
  %7 = getelementptr inbounds nuw i8, ptr %0, i64 8
  %8 = load ptr, ptr %7, align 8, !tbaa !17
  %.not10 = icmp eq ptr %8, null
  br i1 %.not10, label %10, label %9

9:                                                ; preds = %6
  tail call void @free(ptr noundef nonnull %8) #10
  br label %10

10:                                               ; preds = %9, %6
  tail call void @free(ptr noundef nonnull %0) #10
  ret void
}